target datalayout = "e-m:e-p270:32:32-p271:32:32-p272:64:64-i64:64-i128:128-f80:128-n8:16:32:64-S128"
target triple = "x86_64-pc-linux-gnu"

%"class.pxrInternal_v0_24__pxrReserved__::GfMatrix4d" = type { %"class.pxrInternal_v0_24__pxrReserved__::GfMatrixData" }
%"class.pxrInternal_v0_24__pxrReserved__::GfMatrixData" = type { [16 x double] }
%"struct.pxrInternal_v0_24__pxrReserved__::UsdGeomXformCache::_Entry" = type <{ %"class.pxrInternal_v0_24__pxrReserved__::UsdGeomXformable::XformQuery", %"class.pxrInternal_v0_24__pxrReserved__::GfMatrix4d", i8, [7 x i8] }>
%"class.pxrInternal_v0_24__pxrReserved__::UsdGeomXformable::XformQuery" = type <{ %"class.std::vector", i8, [7 x i8] }>
%"class.std::vector" = type { %"struct.std::_Vector_base" }
%"struct.std::_Vector_base" = type { %"struct.std::_Vector_base<pxrInternal_v0_24__pxrReserved__::UsdGeomXformOp, std::allocator<pxrInternal_v0_24__pxrReserved__::UsdGeomXformOp>>::_Vector_impl" }
%"struct.std::_Vector_base<pxrInternal_v0_24__pxrReserved__::UsdGeomXformOp, std::allocator<pxrInternal_v0_24__pxrReserved__::UsdGeomXformOp>>::_Vector_impl" = type { %"struct.std::_Vector_base<pxrInternal_v0_24__pxrReserved__::UsdGeomXformOp, std::allocator<pxrInternal_v0_24__pxrReserved__::UsdGeomXformOp>>::_Vector_impl_data" }
%"struct.std::_Vector_base<pxrInternal_v0_24__pxrReserved__::UsdGeomXformOp, std::allocator<pxrInternal_v0_24__pxrReserved__::UsdGeomXformOp>>::_Vector_impl_data" = type { ptr, ptr, ptr }
%"class.pxrInternal_v0_24__pxrReserved__::TfCallContext" = type <{ ptr, ptr, i64, ptr, i8, [7 x i8] }>

@.str.4 = private unnamed_addr constant [124 x i8] c"generated/home/dtcxzyw/WorkSpace/Projects/compilers/llvm-opt-benchmark/bench/openusd/OpenUSD/pxr/usd/usdGeom/xformCache.cpp\00", align 1
@.str.5 = private unnamed_addr constant [6 x i8] c"entry\00", align 1
@__func__._ZN32pxrInternal_v0_24__pxrReserved__17UsdGeomXformCache35IsAttributeIncludedInLocalTransformERKNS_7UsdPrimERKNS_7TfTokenE = private unnamed_addr constant [36 x i8] c"IsAttributeIncludedInLocalTransform\00", align 1

; Function Attrs: mustprogress nounwind uwtable
define linkonce_odr noundef ptr @_ZN32pxrInternal_v0_24__pxrReserved__21Tf_VerifyStringFormatEv() #1 comdat {
  ret ptr null
}

; Function Attrs: mustprogress nounwind uwtable
define linkonce_odr void @_ZN32pxrInternal_v0_24__pxrReserved__13TfCallContextC2EPKcS2_mS2_(ptr noundef nonnull align 8 dereferenceable(33) %0, ptr noundef %1, ptr noundef %2, i64 noundef %3, ptr noundef %4) unnamed_addr #1 comdat align 2 {
  %6 = alloca ptr, align 8
  %7 = alloca ptr, align 8
  %8 = alloca ptr, align 8
  %9 = alloca i64, align 8
  %10 = alloca ptr, align 8
  store ptr %0, ptr %6, align 8
  store ptr %1, ptr %7, align 8
  store ptr %2, ptr %8, align 8
  store i64 %3, ptr %9, align 8
  store ptr %4, ptr %10, align 8
  %11 = load ptr, ptr %6, align 8
  %12 = getelementptr inbounds nuw %"class.pxrInternal_v0_24__pxrReserved__::TfCallContext", ptr %11, i32 0, i32 0
  %13 = load ptr, ptr %7, align 8
  store ptr %13, ptr %12, align 8
  %14 = getelementptr inbounds nuw %"class.pxrInternal_v0_24__pxrReserved__::TfCallContext", ptr %11, i32 0, i32 1
  %15 = load ptr, ptr %8, align 8
  store ptr %15, ptr %14, align 8
  %16 = getelementptr inbounds nuw %"class.pxrInternal_v0_24__pxrReserved__::TfCallContext", ptr %11, i32 0, i32 2
  %17 = load i64, ptr %9, align 8
  store i64 %17, ptr %16, align 8
  %18 = getelementptr inbounds nuw %"class.pxrInternal_v0_24__pxrReserved__::TfCallContext", ptr %11, i32 0, i32 3
  %19 = load ptr, ptr %10, align 8
  store ptr %19, ptr %18, align 8
  %20 = getelementptr inbounds nuw %"class.pxrInternal_v0_24__pxrReserved__::TfCallContext", ptr %11, i32 0, i32 4
  store i8 0, ptr %20, align 8
  ret void
}

; Function Attrs: mustprogress uwtable
define noundef zeroext i1 @_ZN32pxrInternal_v0_24__pxrReserved__17UsdGeomXformCache35IsAttributeIncludedInLocalTransformERKNS_7UsdPrimERKNS_7TfTokenE(ptr noundef nonnull align 8 dereferenceable(64) %0, ptr noundef nonnull align 8 dereferenceable(32) %1, ptr noundef nonnull align 8 dereferenceable(8) %2) #0 align 2 {
  %4 = alloca i1, align 1
  %5 = alloca ptr, align 8
  %6 = alloca ptr, align 8
  %7 = alloca ptr, align 8
  %8 = alloca ptr, align 8
  %9 = alloca %"class.pxrInternal_v0_24__pxrReserved__::TfCallContext", align 8
  store ptr %0, ptr %5, align 8
  store ptr %1, ptr %6, align 8
  store ptr %2, ptr %7, align 8
  %10 = load ptr, ptr %5, align 8
  %11 = load ptr, ptr %6, align 8
  %12 = call noundef ptr @_ZN32pxrInternal_v0_24__pxrReserved__17UsdGeomXformCache21_GetCacheEntryForPrimERKNS_7UsdPrimE(ptr noundef nonnull align 8 dereferenceable(64) %10, ptr noundef nonnull align 8 dereferenceable(32) %11)
  store ptr %12, ptr %8, align 8
  %13 = load ptr, ptr %8, align 8
  %14 = icmp ne ptr %13, null
  br i1 %14, label %15, label %16

15:                                               ; preds = %3
  br label %19

16:                                               ; preds = %3
  call void @_ZN32pxrInternal_v0_24__pxrReserved__13TfCallContextC2EPKcS2_mS2_(ptr noundef nonnull align 8 dereferenceable(33) %9, ptr noundef @.str.4, ptr noundef @__func__._ZN32pxrInternal_v0_24__pxrReserved__17UsdGeomXformCache35IsAttributeIncludedInLocalTransformERKNS_7UsdPrimERKNS_7TfTokenE, i64 noundef 76, ptr noundef @__PRETTY_FUNCTION__._ZN32pxrInternal_v0_24__pxrReserved__17UsdGeomXformCache35IsAttributeIncludedInLocalTransformERKNS_7UsdPrimERKNS_7TfTokenE)
  %17 = call noundef ptr @_ZN32pxrInternal_v0_24__pxrReserved__21Tf_VerifyStringFormatEv()
  %18 = call noundef zeroext i1 @_ZN32pxrInternal_v0_24__pxrReserved__21Tf_FailedVerifyHelperERKNS_13TfCallContextEPKcS4_(ptr noundef nonnull align 8 dereferenceable(33) %9, ptr noundef @.str.5, ptr noundef %17)
  br label %19

19:                                               ; preds = %16, %15
  %20 = phi i1 [ true, %15 ], [ %18, %16 ]
  br i1 %20, label %21, label %26

21:                                               ; preds = %19
  %22 = load ptr, ptr %8, align 8
  %23 = getelementptr inbounds nuw %"struct.pxrInternal_v0_24__pxrReserved__::UsdGeomXformCache::_Entry", ptr %22, i32 0, i32 0
  %24 = load ptr, ptr %7, align 8
  %25 = call noundef zeroext i1 @_ZNK32pxrInternal_v0_24__pxrReserved__16UsdGeomXformable10XformQuery35IsAttributeIncludedInLocalTransformERKNS_7TfTokenE(ptr noundef nonnull align 8 dereferenceable(25) %23, ptr noundef nonnull align 8 dereferenceable(8) %24)
  store i1 %25, ptr %4, align 1
  br label %27

26:                                               ; preds = %19
  store i1 false, ptr %4, align 1
  br label %27

27:                                               ; preds = %26, %21
  %28 = load i1, ptr %4, align 1
  ret i1 %28
}