; Function Attrs: mustprogress uwtable
define noundef zeroext i1 @_ZN32pxrInternal_v0_24__pxrReserved__17UsdGeomXformCache35IsAttributeIncludedInLocalTransformERKNS_7UsdPrimERKNS_7TfTokenE(ptr noundef nonnull align 8 dereferenceable(64) %0, ptr noundef nonnull align 8 dereferenceable(32) %1, ptr noundef nonnull align 8 dereferenceable(8) %2) local_unnamed_addr #2 align 2 {
  %4 = alloca %"class.pxrInternal_v0_24__pxrReserved__::TfCallContext", align 8
  %5 = tail call noundef ptr @_ZN32pxrInternal_v0_24__pxrReserved__17UsdGeomXformCache21_GetCacheEntryForPrimERKNS_7UsdPrimE(ptr noundef nonnull align 8 dereferenceable(64) %0, ptr noundef nonnull align 8 dereferenceable(32) %1)
  %.not = icmp eq ptr %5, null
  br i1 %.not, label %6, label %.critedge

6:                                                ; preds = %3
  store ptr @.str.4, ptr %4, align 8
  %7 = getelementptr inbounds nuw i8, ptr %4, i64 8
  store ptr @__func__._ZN32pxrInternal_v0_24__pxrReserved__17UsdGeomXformCache35IsAttributeIncludedInLocalTransformERKNS_7UsdPrimERKNS_7TfTokenE, ptr %7, align 8
  %8 = getelementptr inbounds nuw i8, ptr %4, i64 16
  store i64 76, ptr %8, align 8
  %9 = getelementptr inbounds nuw i8, ptr %4, i64 24
  store ptr @__PRETTY_FUNCTION__._ZN32pxrInternal_v0_24__pxrReserved__17UsdGeomXformCache35IsAttributeIncludedInLocalTransformERKNS_7UsdPrimERKNS_7TfTokenE, ptr %9, align 8
  %10 = getelementptr inbounds nuw i8, ptr %4, i64 32
  store i8 0, ptr %10, align 8
  %11 = call noundef zeroext i1 @_ZN32pxrInternal_v0_24__pxrReserved__21Tf_FailedVerifyHelperERKNS_13TfCallContextEPKcS4_(ptr noundef nonnull align 8 dereferenceable(33) %4, ptr noundef nonnull @.str.5, ptr noundef null)
  br i1 %11, label %.critedge, label %13

.critedge:                                        ; preds = %3, %6
  %12 = call noundef zeroext i1 @_ZNK32pxrInternal_v0_24__pxrReserved__16UsdGeomXformable10XformQuery35IsAttributeIncludedInLocalTransformERKNS_7TfTokenE(ptr noundef nonnull align 8 dereferenceable(25) %5, ptr noundef nonnull align 8 dereferenceable(8) %2)
  br label %13

13:                                               ; preds = %6, %.critedge
  %.0 = phi i1 [ %12, %.critedge ], [ false, %6 ]
  ret i1 %.0
}